; Function Attrs: nounwind uwtable
define range(i32 -1, 1) i32 @PGTYPESnumeric_to_int(ptr noundef readonly captures(none) %0, ptr noundef writeonly captures(none) %1) local_unnamed_addr #0 {
  %3 = alloca ptr, align 8
  %4 = tail call ptr @PGTYPESnumeric_to_asc(ptr noundef readonly %0, i32 noundef 0)
  call void @llvm.lifetime.start.p0(i64 8, ptr nonnull %3) #14
  %5 = icmp eq ptr %4, null
  br i1 %5, label %PGTYPESnumeric_to_long.exit.thread, label %6

6:                                                ; preds = %2
  %7 = tail call ptr @__errno_location() #15
  store i32 0, ptr %7, align 4
  %8 = call i64 @strtol(ptr noundef nonnull %4, ptr noundef nonnull %3, i32 noundef 10) #14
  %9 = load ptr, ptr %3, align 8
  %10 = icmp eq ptr %9, %4
  tail call void @free(ptr noundef nonnull %4) #14
  br i1 %10, label %PGTYPESnumeric_to_long.exit.thread, label %11

11:                                               ; preds = %6
  %12 = load i32, ptr %7, align 4
  %13 = icmp eq i32 %12, 34
  br i1 %13, label %14, label %16

14:                                               ; preds = %11
  %15 = icmp eq i64 %8, -9223372036854775808
  %..i = select i1 %15, i32 304, i32 301
  store i32 %..i, ptr %7, align 4
  br label %PGTYPESnumeric_to_long.exit.thread

PGTYPESnumeric_to_long.exit.thread:               ; preds = %14, %2, %6
  call void @llvm.lifetime.end.p0(i64 8, ptr nonnull %3) #14
  br label %21

16:                                               ; preds = %11
  call void @llvm.lifetime.end.p0(i64 8, ptr nonnull %3) #14
  %17 = add i64 %8, -2147483648
  %or.cond = icmp ult i64 %17, -4294967296
  br i1 %or.cond, label %18, label %19

18:                                               ; preds = %16
  store i32 301, ptr %7, align 4
  br label %21

19:                                               ; preds = %16
  %20 = trunc nsw i64 %8 to i32
  store i32 %20, ptr %1, align 4
  br label %21

21:                                               ; preds = %PGTYPESnumeric_to_long.exit.thread, %19, %18
  %.0 = phi i32 [ -1, %18 ], [ 0, %19 ], [ -1, %PGTYPESnumeric_to_long.exit.thread ]
  ret i32 %.0
}